; Function Attrs: mustprogress nofree nounwind willreturn memory(argmem: read) uwtable
define hidden noundef zeroext i1 @_ZN11ClassLoader16string_ends_withEPKcS1_(ptr nocapture noundef readonly %0, ptr nocapture noundef readonly %1) local_unnamed_addr #3 align 2 {
  %3 = tail call i64 @strlen(ptr noundef nonnull dereferenceable(1) %0) #21
  %4 = tail call i64 @strlen(ptr noundef nonnull dereferenceable(1) %1) #21
  %5 = icmp ugt i64 %4, %3
  br i1 %5, label %11, label %6

6:                                                ; preds = %2
  %7 = sub i64 %3, %4
  %8 = getelementptr inbounds i8, ptr %0, i64 %7
  %9 = tail call i32 @strncmp(ptr noundef %8, ptr noundef %1, i64 noundef %4) #21
  %10 = icmp eq i32 %9, 0
  br label %11

11:                                               ; preds = %2, %6
  %.0 = phi i1 [ %10, %6 ], [ false, %2 ]
  ret i1 %.0
}